---
triple:          'arm64-apple-darwin'
binary-path:     main
relocations:
  - { offsetInCU: 0x33F2, offset: 0x33F2, size: 0x8, addend: 0x0, symName: __ZNSt3__124__put_character_sequenceB8ue170006IcNS_11char_traitsIcEEEERNS_13basic_ostreamIT_T0_EES7_PKS4_m, symObjAddr: 0x136C, symBinAddr: 0x100004DC4, symSize: 0x1F4 }
  - { offsetInCU: 0x4C9C, offset: 0x4C9C, size: 0x8, addend: 0x0, symName: __ZNSt3__1rsB8ue170006IcNS_11char_traitsIcEENS_9allocatorIcEEEERNS_13basic_istreamIT_T0_EES9_RNS_12basic_stringIS6_S7_T1_EE, symObjAddr: 0x1B8, symBinAddr: 0x100003C10, symSize: 0x324 }
  - { offsetInCU: 0x4D6B, offset: 0x4D6B, size: 0x8, addend: 0x0, symName: __ZNSt3__1lsB8ue170006INS_11char_traitsIcEEEERNS_13basic_ostreamIcT_EES6_PKc, symObjAddr: 0x4E8, symBinAddr: 0x100003F40, symSize: 0x48 }
  - { offsetInCU: 0x4DB1, offset: 0x4DB1, size: 0x8, addend: 0x0, symName: __ZNSt3__130__libcpp_is_constant_evaluatedB8ue170006Ev, symObjAddr: 0x8CC, symBinAddr: 0x100004324, symSize: 0xC }
  - { offsetInCU: 0x4DCE, offset: 0x4DCE, size: 0x8, addend: 0x0, symName: __ZNSt3__117__libcpp_allocateB8ue170006Emm, symObjAddr: 0xBC4, symBinAddr: 0x10000461C, symSize: 0x28 }
  - { offsetInCU: 0x4E0B, offset: 0x4E0B, size: 0x8, addend: 0x0, symName: __ZNSt3__121__libcpp_operator_newB8ue170006IJmEEEPvDpT_, symObjAddr: 0xC00, symBinAddr: 0x100004658, symSize: 0x24 }
  - { offsetInCU: 0x55DB, offset: 0x55DB, size: 0x8, addend: 0x0, symName: __ZNSt3__19use_facetB8ue170006INS_5ctypeIcEEEERKT_RKNS_6localeE, symObjAddr: 0xDC8, symBinAddr: 0x100004820, symSize: 0x2C }
  - { offsetInCU: 0x5BEE, offset: 0x5BEE, size: 0x8, addend: 0x0, symName: __ZNSt3__116__pad_and_outputB8ue170006IcNS_11char_traitsIcEEEENS_19ostreambuf_iteratorIT_T0_EES6_PKS4_S8_S8_RNS_8ios_baseES4_, symObjAddr: 0x15C4, symBinAddr: 0x10000501C, symSize: 0x248 }
  - { offsetInCU: 0x5CBD, offset: 0x5CBD, size: 0x8, addend: 0x0, symName: __ZNSt3__112__to_addressB8ue170006IKcEEPT_S3_, symObjAddr: 0x19CC, symBinAddr: 0x100005424, symSize: 0x14 }
  - { offsetInCU: 0x5D25, offset: 0x5D25, size: 0x8, addend: 0x0, symName: __ZNSt3__118__constexpr_strlenB8ue170006EPKc, symObjAddr: 0x1BC4, symBinAddr: 0x10000561C, symSize: 0x24 }
  - { offsetInCU: 0x5D52, offset: 0x5D52, size: 0x8, addend: 0x0, symName: __ZSt28__throw_bad_array_new_lengthB8ue170006v, symObjAddr: 0xB90, symBinAddr: 0x1000045E8, symSize: 0x34 }
  - { offsetInCU: 0x834C, offset: 0x834C, size: 0x8, addend: 0x0, symName: __Z12polimorfismo12Polimorfismo, symObjAddr: 0x0, symBinAddr: 0x100003A58, symSize: 0x178 }
  - { offsetInCU: 0x83BB, offset: 0x83BB, size: 0x8, addend: 0x0, symName: __ZNSt3__112basic_stringIcNS_11char_traitsIcEENS_9allocatorIcEEEC1B8ue170006Ev, symObjAddr: 0x18C, symBinAddr: 0x100003BE4, symSize: 0x2C }
  - { offsetInCU: 0x83E3, offset: 0x83E3, size: 0x8, addend: 0x0, symName: _main, symObjAddr: 0x530, symBinAddr: 0x100003F88, symSize: 0x160 }
  - { offsetInCU: 0x8420, offset: 0x8420, size: 0x8, addend: 0x0, symName: __ZNSt3__112basic_stringIcNS_11char_traitsIcEENS_9allocatorIcEEEC1B8ue170006ILi0EEEPKc, symObjAddr: 0x690, symBinAddr: 0x1000040E8, symSize: 0x34 }
  - { offsetInCU: 0x845D, offset: 0x845D, size: 0x8, addend: 0x0, symName: __ZNSt3__112basic_stringIcNS_11char_traitsIcEENS_9allocatorIcEEEC2B8ue170006Ev, symObjAddr: 0x6C4, symBinAddr: 0x10000411C, symSize: 0x3C }
  - { offsetInCU: 0x848A, offset: 0x848A, size: 0x8, addend: 0x0, symName: __ZNSt3__117__compressed_pairINS_12basic_stringIcNS_11char_traitsIcEENS_9allocatorIcEEE5__repES5_EC1B8ue170006INS_18__default_init_tagESA_EEOT_OT0_, symObjAddr: 0x700, symBinAddr: 0x100004158, symSize: 0x3C }
  - { offsetInCU: 0x84E1, offset: 0x84E1, size: 0x8, addend: 0x0, symName: __ZNSt3__112basic_stringIcNS_11char_traitsIcEENS_9allocatorIcEEE14__default_initB8ue170006Ev, symObjAddr: 0x73C, symBinAddr: 0x100004194, symSize: 0xB0 }
  - { offsetInCU: 0x8531, offset: 0x8531, size: 0x8, addend: 0x0, symName: __ZNSt3__117__compressed_pairINS_12basic_stringIcNS_11char_traitsIcEENS_9allocatorIcEEE5__repES5_EC2B8ue170006INS_18__default_init_tagESA_EEOT_OT0_, symObjAddr: 0x7EC, symBinAddr: 0x100004244, symSize: 0x3C }
  - { offsetInCU: 0x8588, offset: 0x8588, size: 0x8, addend: 0x0, symName: __ZNSt3__122__compressed_pair_elemINS_12basic_stringIcNS_11char_traitsIcEENS_9allocatorIcEEE5__repELi0ELb0EEC2B8ue170006ENS_18__default_init_tagE, symObjAddr: 0x828, symBinAddr: 0x100004280, symSize: 0x14 }
  - { offsetInCU: 0x85BB, offset: 0x85BB, size: 0x8, addend: 0x0, symName: __ZNSt3__122__compressed_pair_elemINS_9allocatorIcEELi1ELb1EEC2B8ue170006ENS_18__default_init_tagE, symObjAddr: 0x83C, symBinAddr: 0x100004294, symSize: 0x2C }
  - { offsetInCU: 0x85EE, offset: 0x85EE, size: 0x8, addend: 0x0, symName: __ZNSt3__19allocatorIcEC2B8ue170006Ev, symObjAddr: 0x868, symBinAddr: 0x1000042C0, symSize: 0x2C }
  - { offsetInCU: 0x8617, offset: 0x8617, size: 0x8, addend: 0x0, symName: __ZNSt3__116__non_trivial_ifILb1ENS_9allocatorIcEEEC2B8ue170006Ev, symObjAddr: 0x894, symBinAddr: 0x1000042EC, symSize: 0x14 }
  - { offsetInCU: 0x8640, offset: 0x8640, size: 0x8, addend: 0x0, symName: __ZNSt3__117__compressed_pairINS_12basic_stringIcNS_11char_traitsIcEENS_9allocatorIcEEE5__repES5_E5firstB8ue170006Ev, symObjAddr: 0x8A8, symBinAddr: 0x100004300, symSize: 0x24 }
  - { offsetInCU: 0x8664, offset: 0x8664, size: 0x8, addend: 0x0, symName: __ZNSt3__112basic_stringIcNS_11char_traitsIcEENS_9allocatorIcEEE11__recommendB8ue170006Em, symObjAddr: 0x8D8, symBinAddr: 0x100004330, symSize: 0x9C }
  - { offsetInCU: 0x8697, offset: 0x8697, size: 0x8, addend: 0x0, symName: __ZNSt3__116allocator_traitsINS_9allocatorIcEEE8allocateB8ue170006ERS2_m, symObjAddr: 0x974, symBinAddr: 0x1000043CC, symSize: 0x2C }
  - { offsetInCU: 0x86CA, offset: 0x86CA, size: 0x8, addend: 0x0, symName: __ZNSt3__112basic_stringIcNS_11char_traitsIcEENS_9allocatorIcEEE7__allocB8ue170006Ev, symObjAddr: 0x9A0, symBinAddr: 0x1000043F8, symSize: 0x24 }
  - { offsetInCU: 0x86EE, offset: 0x86EE, size: 0x8, addend: 0x0, symName: __ZNSt3__112basic_stringIcNS_11char_traitsIcEENS_9allocatorIcEEE16__begin_lifetimeB8ue170006EPcm, symObjAddr: 0x9C4, symBinAddr: 0x10000441C, symSize: 0x14 }
  - { offsetInCU: 0x8721, offset: 0x8721, size: 0x8, addend: 0x0, symName: __ZNSt3__112basic_stringIcNS_11char_traitsIcEENS_9allocatorIcEEE18__set_long_pointerB8ue170006EPc, symObjAddr: 0x9D8, symBinAddr: 0x100004430, symSize: 0x38 }
  - { offsetInCU: 0x8754, offset: 0x8754, size: 0x8, addend: 0x0, symName: __ZNSt3__112basic_stringIcNS_11char_traitsIcEENS_9allocatorIcEEE14__set_long_capB8ue170006Em, symObjAddr: 0xA10, symBinAddr: 0x100004468, symSize: 0x70 }
  - { offsetInCU: 0x8787, offset: 0x8787, size: 0x8, addend: 0x0, symName: __ZNSt3__112basic_stringIcNS_11char_traitsIcEENS_9allocatorIcEEE15__set_long_sizeB8ue170006Em, symObjAddr: 0xA80, symBinAddr: 0x1000044D8, symSize: 0x38 }
  - { offsetInCU: 0x87BA, offset: 0x87BA, size: 0x8, addend: 0x0, symName: __ZNSt3__122__compressed_pair_elemINS_12basic_stringIcNS_11char_traitsIcEENS_9allocatorIcEEE5__repELi0ELb0EE5__getB8ue170006Ev, symObjAddr: 0xAB8, symBinAddr: 0x100004510, symSize: 0x14 }
  - { offsetInCU: 0x87DF, offset: 0x87DF, size: 0x8, addend: 0x0, symName: __ZNSt3__112basic_stringIcNS_11char_traitsIcEENS_9allocatorIcEEE10__align_itB8ue170006ILm16EEEmm, symObjAddr: 0xACC, symBinAddr: 0x100004524, symSize: 0x1C }
  - { offsetInCU: 0x880D, offset: 0x880D, size: 0x8, addend: 0x0, symName: __ZNSt3__19allocatorIcE8allocateB8ue170006Em, symObjAddr: 0xAE8, symBinAddr: 0x100004540, symSize: 0x84 }
  - { offsetInCU: 0x8849, offset: 0x8849, size: 0x8, addend: 0x0, symName: __ZNSt3__116allocator_traitsINS_9allocatorIcEEE8max_sizeB8ue170006IS2_vEEmRKS2_, symObjAddr: 0xB6C, symBinAddr: 0x1000045C4, symSize: 0x24 }
  - { offsetInCU: 0x8877, offset: 0x8877, size: 0x8, addend: 0x0, symName: __ZNKSt3__19allocatorIcE8max_sizeB8ue170006Ev, symObjAddr: 0xBEC, symBinAddr: 0x100004644, symSize: 0x14 }
  - { offsetInCU: 0x889C, offset: 0x889C, size: 0x8, addend: 0x0, symName: __ZNSt3__117__compressed_pairINS_12basic_stringIcNS_11char_traitsIcEENS_9allocatorIcEEE5__repES5_E6secondB8ue170006Ev, symObjAddr: 0xC24, symBinAddr: 0x10000467C, symSize: 0x24 }
  - { offsetInCU: 0x88C0, offset: 0x88C0, size: 0x8, addend: 0x0, symName: __ZNSt3__122__compressed_pair_elemINS_9allocatorIcEELi1ELb1EE5__getB8ue170006Ev, symObjAddr: 0xC48, symBinAddr: 0x1000046A0, symSize: 0x14 }
  - { offsetInCU: 0x898C, offset: 0x898C, size: 0x8, addend: 0x0, symName: __ZNKSt3__113basic_istreamIcNS_11char_traitsIcEEE6sentrycvbB8ue170006Ev, symObjAddr: 0xC5C, symBinAddr: 0x1000046B4, symSize: 0x1C }
  - { offsetInCU: 0x89B1, offset: 0x89B1, size: 0x8, addend: 0x0, symName: __ZNSt3__112basic_stringIcNS_11char_traitsIcEENS_9allocatorIcEEE5clearB8ue170006Ev, symObjAddr: 0xC78, symBinAddr: 0x1000046D0, symSize: 0x78 }
  - { offsetInCU: 0x89D8, offset: 0x89D8, size: 0x8, addend: 0x0, symName: __ZNKSt3__18ios_base5widthB8ue170006Ev, symObjAddr: 0xCF0, symBinAddr: 0x100004748, symSize: 0x18 }
  - { offsetInCU: 0x89FF, offset: 0x89FF, size: 0x8, addend: 0x0, symName: __ZNKSt3__112basic_stringIcNS_11char_traitsIcEENS_9allocatorIcEEE8max_sizeB8ue170006Ev, symObjAddr: 0xD08, symBinAddr: 0x100004760, symSize: 0xAC }
  - { offsetInCU: 0x8A50, offset: 0x8A50, size: 0x8, addend: 0x0, symName: __ZNSt3__114numeric_limitsIlE3maxB8ue170006Ev, symObjAddr: 0xDB4, symBinAddr: 0x10000480C, symSize: 0x14 }
  - { offsetInCU: 0x8A64, offset: 0x8A64, size: 0x8, addend: 0x0, symName: __ZNKSt3__19basic_iosIcNS_11char_traitsIcEEE5rdbufB8ue170006Ev, symObjAddr: 0xDF4, symBinAddr: 0x10000484C, symSize: 0x24 }
  - { offsetInCU: 0x8A8B, offset: 0x8A8B, size: 0x8, addend: 0x0, symName: __ZNSt3__115basic_streambufIcNS_11char_traitsIcEEE5sgetcB8ue170006Ev, symObjAddr: 0xE18, symBinAddr: 0x100004870, symSize: 0x70 }
  - { offsetInCU: 0x8AAF, offset: 0x8AAF, size: 0x8, addend: 0x0, symName: __ZNSt3__111char_traitsIcE11eq_int_typeB8ue170006Eii, symObjAddr: 0xE88, symBinAddr: 0x1000048E0, symSize: 0x28 }
  - { offsetInCU: 0x8AE2, offset: 0x8AE2, size: 0x8, addend: 0x0, symName: __ZNSt3__111char_traitsIcE3eofB8ue170006Ev, symObjAddr: 0xEB0, symBinAddr: 0x100004908, symSize: 0x8 }
  - { offsetInCU: 0x8AF6, offset: 0x8AF6, size: 0x8, addend: 0x0, symName: __ZNSt3__111char_traitsIcE12to_char_typeB8ue170006Ei, symObjAddr: 0xEB8, symBinAddr: 0x100004910, symSize: 0x18 }
  - { offsetInCU: 0x8B46, offset: 0x8B46, size: 0x8, addend: 0x0, symName: __ZNKSt3__15ctypeIcE2isB8ue170006Ejc, symObjAddr: 0xED0, symBinAddr: 0x100004928, symSize: 0x7C }
  - { offsetInCU: 0x8B88, offset: 0x8B88, size: 0x8, addend: 0x0, symName: __ZNSt3__115basic_streambufIcNS_11char_traitsIcEEE6sbumpcB8ue170006Ev, symObjAddr: 0xF4C, symBinAddr: 0x1000049A4, symSize: 0x78 }
  - { offsetInCU: 0x8BAC, offset: 0x8BAC, size: 0x8, addend: 0x0, symName: __ZNSt3__18ios_base5widthB8ue170006El, symObjAddr: 0xFC4, symBinAddr: 0x100004A1C, symSize: 0x2C }
  - { offsetInCU: 0x8BF1, offset: 0x8BF1, size: 0x8, addend: 0x0, symName: __ZNSt3__18ios_base18__setstate_nothrowB8ue170006Ej, symObjAddr: 0xFF0, symBinAddr: 0x100004A48, symSize: 0x64 }
  - { offsetInCU: 0x8C25, offset: 0x8C25, size: 0x8, addend: 0x0, symName: __ZNKSt3__19basic_iosIcNS_11char_traitsIcEEE10exceptionsB8ue170006Ev, symObjAddr: 0x1054, symBinAddr: 0x100004AAC, symSize: 0x24 }
  - { offsetInCU: 0x8C49, offset: 0x8C49, size: 0x8, addend: 0x0, symName: __ZNSt3__19basic_iosIcNS_11char_traitsIcEEE8setstateB8ue170006Ej, symObjAddr: 0x1078, symBinAddr: 0x100004AD0, symSize: 0x2C }
  - { offsetInCU: 0x8C7C, offset: 0x8C7C, size: 0x8, addend: 0x0, symName: __ZNKSt3__112basic_stringIcNS_11char_traitsIcEENS_9allocatorIcEEE9__is_longB8ue170006Ev, symObjAddr: 0x10A4, symBinAddr: 0x100004AFC, symSize: 0x74 }
  - { offsetInCU: 0x8CA0, offset: 0x8CA0, size: 0x8, addend: 0x0, symName: __ZNSt3__111char_traitsIcE6assignB8ue170006ERcRKc, symObjAddr: 0x1118, symBinAddr: 0x100004B70, symSize: 0x24 }
  - { offsetInCU: 0x8CD1, offset: 0x8CD1, size: 0x8, addend: 0x0, symName: __ZNSt3__112basic_stringIcNS_11char_traitsIcEENS_9allocatorIcEEE18__get_long_pointerB8ue170006Ev, symObjAddr: 0x113C, symBinAddr: 0x100004B94, symSize: 0x28 }
  - { offsetInCU: 0x8CF5, offset: 0x8CF5, size: 0x8, addend: 0x0, symName: __ZNSt3__112basic_stringIcNS_11char_traitsIcEENS_9allocatorIcEEE19__get_short_pointerB8ue170006Ev, symObjAddr: 0x1164, symBinAddr: 0x100004BBC, symSize: 0x28 }
  - { offsetInCU: 0x8D19, offset: 0x8D19, size: 0x8, addend: 0x0, symName: __ZNSt3__112basic_stringIcNS_11char_traitsIcEENS_9allocatorIcEEE16__set_short_sizeB8ue170006Em, symObjAddr: 0x118C, symBinAddr: 0x100004BE4, symSize: 0x78 }
  - { offsetInCU: 0x8D4C, offset: 0x8D4C, size: 0x8, addend: 0x0, symName: __ZNKSt3__117__compressed_pairINS_12basic_stringIcNS_11char_traitsIcEENS_9allocatorIcEEE5__repES5_E5firstB8ue170006Ev, symObjAddr: 0x1204, symBinAddr: 0x100004C5C, symSize: 0x24 }
  - { offsetInCU: 0x8D70, offset: 0x8D70, size: 0x8, addend: 0x0, symName: __ZNKSt3__122__compressed_pair_elemINS_12basic_stringIcNS_11char_traitsIcEENS_9allocatorIcEEE5__repELi0ELb0EE5__getB8ue170006Ev, symObjAddr: 0x1228, symBinAddr: 0x100004C80, symSize: 0x14 }
  - { offsetInCU: 0x8D95, offset: 0x8D95, size: 0x8, addend: 0x0, symName: __ZNSt3__114pointer_traitsIPcE10pointer_toB8ue170006ERc, symObjAddr: 0x123C, symBinAddr: 0x100004C94, symSize: 0x14 }
  - { offsetInCU: 0x8DB8, offset: 0x8DB8, size: 0x8, addend: 0x0, symName: __ZNKSt3__112basic_stringIcNS_11char_traitsIcEENS_9allocatorIcEEE7__allocB8ue170006Ev, symObjAddr: 0x1250, symBinAddr: 0x100004CA8, symSize: 0x24 }
  - { offsetInCU: 0x8DDC, offset: 0x8DDC, size: 0x8, addend: 0x0, symName: __ZNSt3__114numeric_limitsImE3maxB8ue170006Ev, symObjAddr: 0x1274, symBinAddr: 0x100004CCC, symSize: 0x14 }
  - { offsetInCU: 0x8DF0, offset: 0x8DF0, size: 0x8, addend: 0x0, symName: __ZNKSt3__117__compressed_pairINS_12basic_stringIcNS_11char_traitsIcEENS_9allocatorIcEEE5__repES5_E6secondB8ue170006Ev, symObjAddr: 0x1288, symBinAddr: 0x100004CE0, symSize: 0x24 }
  - { offsetInCU: 0x8E14, offset: 0x8E14, size: 0x8, addend: 0x0, symName: __ZNKSt3__122__compressed_pair_elemINS_9allocatorIcEELi1ELb1EE5__getB8ue170006Ev, symObjAddr: 0x12AC, symBinAddr: 0x100004D04, symSize: 0x14 }
  - { offsetInCU: 0x8E39, offset: 0x8E39, size: 0x8, addend: 0x0, symName: __ZNSt3__123__libcpp_numeric_limitsImLb1EE3maxB8ue170006Ev, symObjAddr: 0x12C0, symBinAddr: 0x100004D18, symSize: 0x8 }
  - { offsetInCU: 0x8E4D, offset: 0x8E4D, size: 0x8, addend: 0x0, symName: __ZNSt3__123__libcpp_numeric_limitsIlLb1EE3maxB8ue170006Ev, symObjAddr: 0x12C8, symBinAddr: 0x100004D20, symSize: 0x8 }
  - { offsetInCU: 0x8E61, offset: 0x8E61, size: 0x8, addend: 0x0, symName: __ZNKSt3__18ios_base5rdbufB8ue170006Ev, symObjAddr: 0x12D0, symBinAddr: 0x100004D28, symSize: 0x18 }
  - { offsetInCU: 0x8E86, offset: 0x8E86, size: 0x8, addend: 0x0, symName: __ZNSt3__111char_traitsIcE11to_int_typeB8ue170006Ec, symObjAddr: 0x12E8, symBinAddr: 0x100004D40, symSize: 0x14 }
  - { offsetInCU: 0x8EA9, offset: 0x8EA9, size: 0x8, addend: 0x0, symName: __Z7isasciii, symObjAddr: 0x12FC, symBinAddr: 0x100004D54, symSize: 0x24 }
  - { offsetInCU: 0x8ED6, offset: 0x8ED6, size: 0x8, addend: 0x0, symName: __ZNKSt3__18ios_base10exceptionsB8ue170006Ev, symObjAddr: 0x1320, symBinAddr: 0x100004D78, symSize: 0x18 }
  - { offsetInCU: 0x8EFD, offset: 0x8EFD, size: 0x8, addend: 0x0, symName: __ZNSt3__18ios_base8setstateB8ue170006Ej, symObjAddr: 0x1338, symBinAddr: 0x100004D90, symSize: 0x34 }
  - { offsetInCU: 0x8F33, offset: 0x8F33, size: 0x8, addend: 0x0, symName: __ZNSt3__111char_traitsIcE6lengthB8ue170006EPKc, symObjAddr: 0x1560, symBinAddr: 0x100004FB8, symSize: 0x48 }
  - { offsetInCU: 0x8F74, offset: 0x8F74, size: 0x8, addend: 0x0, symName: __ZNKSt3__113basic_ostreamIcNS_11char_traitsIcEEE6sentrycvbB8ue170006Ev, symObjAddr: 0x15A8, symBinAddr: 0x100005000, symSize: 0x1C }
  - { offsetInCU: 0x8F98, offset: 0x8F98, size: 0x8, addend: 0x0, symName: __ZNSt3__119ostreambuf_iteratorIcNS_11char_traitsIcEEEC1B8ue170006ERNS_13basic_ostreamIcS2_EE, symObjAddr: 0x180C, symBinAddr: 0x100005264, symSize: 0x34 }
  - { offsetInCU: 0x8FCF, offset: 0x8FCF, size: 0x8, addend: 0x0, symName: __ZNKSt3__18ios_base5flagsB8ue170006Ev, symObjAddr: 0x1840, symBinAddr: 0x100005298, symSize: 0x18 }
  - { offsetInCU: 0x8FF6, offset: 0x8FF6, size: 0x8, addend: 0x0, symName: __ZNKSt3__19basic_iosIcNS_11char_traitsIcEEE4fillB8ue170006Ev, symObjAddr: 0x1858, symBinAddr: 0x1000052B0, symSize: 0x64 }
  - { offsetInCU: 0x901D, offset: 0x901D, size: 0x8, addend: 0x0, symName: __ZNKSt3__119ostreambuf_iteratorIcNS_11char_traitsIcEEE6failedB8ue170006Ev, symObjAddr: 0x18BC, symBinAddr: 0x100005314, symSize: 0x24 }
  - { offsetInCU: 0x9042, offset: 0x9042, size: 0x8, addend: 0x0, symName: __ZNSt3__115basic_streambufIcNS_11char_traitsIcEEE5sputnB8ue170006EPKcl, symObjAddr: 0x18E0, symBinAddr: 0x100005338, symSize: 0x3C }
  - { offsetInCU: 0x9081, offset: 0x9081, size: 0x8, addend: 0x0, symName: __ZNSt3__112basic_stringIcNS_11char_traitsIcEENS_9allocatorIcEEEC1B8ue170006Emc, symObjAddr: 0x191C, symBinAddr: 0x100005374, symSize: 0x3C }
  - { offsetInCU: 0x90C8, offset: 0x90C8, size: 0x8, addend: 0x0, symName: __ZNKSt3__112basic_stringIcNS_11char_traitsIcEENS_9allocatorIcEEE4dataB8ue170006Ev, symObjAddr: 0x1958, symBinAddr: 0x1000053B0, symSize: 0x28 }
  - { offsetInCU: 0x90EB, offset: 0x90EB, size: 0x8, addend: 0x0, symName: __ZNSt3__112basic_stringIcNS_11char_traitsIcEENS_9allocatorIcEEEC2B8ue170006Emc, symObjAddr: 0x1980, symBinAddr: 0x1000053D8, symSize: 0x4C }
  - { offsetInCU: 0x9132, offset: 0x9132, size: 0x8, addend: 0x0, symName: __ZNKSt3__112basic_stringIcNS_11char_traitsIcEENS_9allocatorIcEEE13__get_pointerB8ue170006Ev, symObjAddr: 0x19E0, symBinAddr: 0x100005438, symSize: 0x54 }
  - { offsetInCU: 0x9156, offset: 0x9156, size: 0x8, addend: 0x0, symName: __ZNKSt3__112basic_stringIcNS_11char_traitsIcEENS_9allocatorIcEEE18__get_long_pointerB8ue170006Ev, symObjAddr: 0x1A34, symBinAddr: 0x10000548C, symSize: 0x28 }
  - { offsetInCU: 0x917A, offset: 0x917A, size: 0x8, addend: 0x0, symName: __ZNKSt3__112basic_stringIcNS_11char_traitsIcEENS_9allocatorIcEEE19__get_short_pointerB8ue170006Ev, symObjAddr: 0x1A5C, symBinAddr: 0x1000054B4, symSize: 0x28 }
  - { offsetInCU: 0x919E, offset: 0x919E, size: 0x8, addend: 0x0, symName: __ZNSt3__114pointer_traitsIPKcE10pointer_toB8ue170006ERS1_, symObjAddr: 0x1A84, symBinAddr: 0x1000054DC, symSize: 0x14 }
  - { offsetInCU: 0x91C0, offset: 0x91C0, size: 0x8, addend: 0x0, symName: __ZNSt3__119ostreambuf_iteratorIcNS_11char_traitsIcEEEC2B8ue170006ERNS_13basic_ostreamIcS2_EE, symObjAddr: 0x1A98, symBinAddr: 0x1000054F0, symSize: 0x68 }
  - { offsetInCU: 0x91F7, offset: 0x91F7, size: 0x8, addend: 0x0, symName: __ZNKSt3__19basic_iosIcNS_11char_traitsIcEEE5widenB8ue170006Ec, symObjAddr: 0x1B00, symBinAddr: 0x100005558, symSize: 0x8C }
  - { offsetInCU: 0x922D, offset: 0x922D, size: 0x8, addend: 0x0, symName: __ZNKSt3__15ctypeIcE5widenB8ue170006Ec, symObjAddr: 0x1B8C, symBinAddr: 0x1000055E4, symSize: 0x38 }
  - { offsetInCU: 0x925F, offset: 0x925F, size: 0x8, addend: 0x0, symName: __ZNSt3__112basic_stringIcNS_11char_traitsIcEENS_9allocatorIcEEEC2B8ue170006ILi0EEEPKc, symObjAddr: 0x1BE8, symBinAddr: 0x100005640, symSize: 0x58 }
  - { offsetInCU: 0x2128, offset: 0xB6DF, size: 0x8, addend: 0x0, symName: __ZNSt3__16copy_nB8ue170006IPKcmPcEENS_9enable_ifIXsr37__has_random_access_iterator_categoryIT_EE5valueET1_E4typeES5_T0_S6_, symObjAddr: 0x1404, symBinAddr: 0x1000061F8, symSize: 0x44 }
  - { offsetInCU: 0x2C97, offset: 0xC24E, size: 0x8, addend: 0x0, symName: __ZNSt3__1plB8ue170006IcNS_11char_traitsIcEENS_9allocatorIcEEEENS_12basic_stringIT_T0_T1_EERKS9_SB_, symObjAddr: 0x420, symBinAddr: 0x100005A80, symSize: 0x134 }
  - { offsetInCU: 0x2D38, offset: 0xC2EF, size: 0x8, addend: 0x0, symName: __ZNSt3__1plB8ue170006IcNS_11char_traitsIcEENS_9allocatorIcEEEENS_12basic_stringIT_T0_T1_EERKS9_S6_, symObjAddr: 0x554, symBinAddr: 0x100005BB4, symSize: 0x110 }
  - { offsetInCU: 0x2DCA, offset: 0xC381, size: 0x8, addend: 0x0, symName: __ZNSt3__112__to_addressB8ue170006IcEEPT_S2_, symObjAddr: 0xCC0, symBinAddr: 0x100005D88, symSize: 0x14 }
  - { offsetInCU: 0x2DFF, offset: 0xC3B6, size: 0x8, addend: 0x0, symName: __ZNSt3__120__throw_length_errorB8ue170006EPKc, symObjAddr: 0x12BC, symBinAddr: 0x100006114, symSize: 0x64 }
  - { offsetInCU: 0x2E2A, offset: 0xC3E1, size: 0x8, addend: 0x0, symName: __ZNSt3__14copyB8ue170006IPKcPcEET0_T_S5_S4_, symObjAddr: 0x1448, symBinAddr: 0x10000623C, symSize: 0x40 }
  - { offsetInCU: 0x2E84, offset: 0xC43B, size: 0x8, addend: 0x0, symName: __ZNSt3__16__copyB8ue170006INS_17_ClassicAlgPolicyEPKcS3_PcEENS_4pairIT0_T2_EES6_T1_S7_, symObjAddr: 0x1488, symBinAddr: 0x10000627C, symSize: 0x44 }
  - { offsetInCU: 0x2EF0, offset: 0xC4A7, size: 0x8, addend: 0x0, symName: __ZNSt3__123__dispatch_copy_or_moveB8ue170006INS_17_ClassicAlgPolicyENS_11__copy_loopIS1_EENS_14__copy_trivialEPKcS6_PcEENS_4pairIT2_T4_EES9_T3_SA_, symObjAddr: 0x14CC, symBinAddr: 0x1000062C0, symSize: 0x44 }
  - { offsetInCU: 0x2F6E, offset: 0xC525, size: 0x8, addend: 0x0, symName: __ZNSt3__121__unwrap_and_dispatchB8ue170006INS_10__overloadINS_11__copy_loopINS_17_ClassicAlgPolicyEEENS_14__copy_trivialEEEPKcS8_PcLi0EEENS_4pairIT0_T2_EESB_T1_SC_, symObjAddr: 0x1510, symBinAddr: 0x100006304, symSize: 0xB4 }
  - { offsetInCU: 0x2FFC, offset: 0xC5B3, size: 0x8, addend: 0x0, symName: __ZNSt3__114__unwrap_rangeB8ue170006IPKcS2_EENS_4pairIT0_S4_EET_S6_, symObjAddr: 0x15C4, symBinAddr: 0x1000063B8, symSize: 0x60 }
  - { offsetInCU: 0x313B, offset: 0xC6F2, size: 0x8, addend: 0x0, symName: __ZNSt3__113__unwrap_iterB8ue170006IPcNS_18__unwrap_iter_implIS1_Lb1EEELi0EEEDTclsrT0_8__unwrapclsr3stdE7declvalIT_EEEES5_, symObjAddr: 0x166C, symBinAddr: 0x100006460, symSize: 0x24 }
  - { offsetInCU: 0x317F, offset: 0xC736, size: 0x8, addend: 0x0, symName: __ZNSt3__19make_pairB8ue170006IPKcPcEENS_4pairINS_18__unwrap_ref_decayIT_E4typeENS5_IT0_E4typeEEEOS6_OS9_, symObjAddr: 0x1690, symBinAddr: 0x100006484, symSize: 0x38 }
  - { offsetInCU: 0x31CE, offset: 0xC785, size: 0x8, addend: 0x0, symName: __ZNSt3__114__rewrap_rangeB8ue170006IPKcS2_EET_S3_T0_, symObjAddr: 0x16C8, symBinAddr: 0x1000064BC, symSize: 0x2C }
  - { offsetInCU: 0x321A, offset: 0xC7D1, size: 0x8, addend: 0x0, symName: __ZNSt3__113__rewrap_iterB8ue170006IPcS1_NS_18__unwrap_iter_implIS1_Lb1EEEEET_S4_T0_, symObjAddr: 0x16F4, symBinAddr: 0x1000064E8, symSize: 0x50 }
  - { offsetInCU: 0x326F, offset: 0xC826, size: 0x8, addend: 0x0, symName: __ZNSt3__19make_pairB8ue170006IPKcS2_EENS_4pairINS_18__unwrap_ref_decayIT_E4typeENS4_IT0_E4typeEEEOS5_OS8_, symObjAddr: 0x1744, symBinAddr: 0x100006538, symSize: 0x38 }
  - { offsetInCU: 0x32BE, offset: 0xC875, size: 0x8, addend: 0x0, symName: __ZNSt3__113__unwrap_iterB8ue170006IPKcNS_18__unwrap_iter_implIS2_Lb1EEELi0EEEDTclsrT0_8__unwrapclsr3stdE7declvalIT_EEEES6_, symObjAddr: 0x177C, symBinAddr: 0x100006570, symSize: 0x24 }
  - { offsetInCU: 0x3402, offset: 0xC9B9, size: 0x8, addend: 0x0, symName: __ZNSt3__119__copy_trivial_implB8ue170006IKccEENS_4pairIPT_PT0_EES4_S4_S6_, symObjAddr: 0x1848, symBinAddr: 0x100006628, symSize: 0x78 }
  - { offsetInCU: 0x346A, offset: 0xCA21, size: 0x8, addend: 0x0, symName: __ZNSt3__119__constexpr_memmoveB8ue170006IcKcLi0EEEPT_S3_PT0_NS_15__element_countE, symObjAddr: 0x18C0, symBinAddr: 0x1000066A0, symSize: 0xA0 }
  - { offsetInCU: 0x34D8, offset: 0xCA8F, size: 0x8, addend: 0x0, symName: __ZNSt3__19make_pairB8ue170006IRPKcPcEENS_4pairINS_18__unwrap_ref_decayIT_E4typeENS6_IT0_E4typeEEEOS7_OSA_, symObjAddr: 0x1960, symBinAddr: 0x100006740, symSize: 0x38 }
  - { offsetInCU: 0x357A, offset: 0xCB31, size: 0x8, addend: 0x0, symName: __ZNSt3__113__rewrap_iterB8ue170006IPKcS2_NS_18__unwrap_iter_implIS2_Lb1EEEEET_S5_T0_, symObjAddr: 0x1A2C, symBinAddr: 0x10000680C, symSize: 0x50 }
  - { offsetInCU: 0x35CF, offset: 0xCB86, size: 0x8, addend: 0x0, symName: __ZNSt3__16fill_nB8ue170006IPcmcEET_S2_T0_RKT1_, symObjAddr: 0x1BC4, symBinAddr: 0x1000068EC, symSize: 0x44 }
  - { offsetInCU: 0x3632, offset: 0xCBE9, size: 0x8, addend: 0x0, symName: __ZNSt3__18__fill_nB8ue170006IPcmcEET_S2_T0_RKT1_, symObjAddr: 0x1C08, symBinAddr: 0x100006930, symSize: 0x64 }
  - { offsetInCU: 0x3695, offset: 0xCC4C, size: 0x8, addend: 0x0, symName: __ZNSt3__121__convert_to_integralB8ue170006Em, symObjAddr: 0x1C6C, symBinAddr: 0x100006994, symSize: 0x14 }
  - { offsetInCU: 0x58C4, offset: 0xEE7B, size: 0x8, addend: 0x0, symName: __ZN8EpisodioC2Ev, symObjAddr: 0x0, symBinAddr: 0x100005698, symSize: 0x74 }
  - { offsetInCU: 0x58EF, offset: 0xEEA6, size: 0x8, addend: 0x0, symName: __ZNSt3__112basic_stringIcNS_11char_traitsIcEENS_9allocatorIcEEEaSB8ue170006EPKc, symObjAddr: 0xA0, symBinAddr: 0x10000570C, symSize: 0x2C }
  - { offsetInCU: 0x5922, offset: 0xEED9, size: 0x8, addend: 0x0, symName: __ZN8EpisodioC1Ev, symObjAddr: 0xD8, symBinAddr: 0x100005738, symSize: 0x2C }
  - { offsetInCU: 0x594D, offset: 0xEF04, size: 0x8, addend: 0x0, symName: __ZN8EpisodioC2ENSt3__112basic_stringIcNS0_11char_traitsIcEENS0_9allocatorIcEEEEii, symObjAddr: 0x104, symBinAddr: 0x100005764, symSize: 0x88 }
  - { offsetInCU: 0x59A3, offset: 0xEF5A, size: 0x8, addend: 0x0, symName: __ZN8EpisodioC1ENSt3__112basic_stringIcNS0_11char_traitsIcEENS0_9allocatorIcEEEEii, symObjAddr: 0x18C, symBinAddr: 0x1000057EC, symSize: 0x44 }
  - { offsetInCU: 0x59F9, offset: 0xEFB0, size: 0x8, addend: 0x0, symName: __ZN8Episodio10setNombreEENSt3__112basic_stringIcNS0_11char_traitsIcEENS0_9allocatorIcEEEE, symObjAddr: 0x1D0, symBinAddr: 0x100005830, symSize: 0x2C }
  - { offsetInCU: 0x5A2F, offset: 0xEFE6, size: 0x8, addend: 0x0, symName: __ZN8Episodio13setTemporadaEEi, symObjAddr: 0x1FC, symBinAddr: 0x10000585C, symSize: 0x20 }
  - { offsetInCU: 0x5A64, offset: 0xF01B, size: 0x8, addend: 0x0, symName: __ZN8Episodio16setCalificacionEEi, symObjAddr: 0x21C, symBinAddr: 0x10000587C, symSize: 0x20 }
  - { offsetInCU: 0x5A99, offset: 0xF050, size: 0x8, addend: 0x0, symName: __ZN8Episodio10getNombreEEv, symObjAddr: 0x23C, symBinAddr: 0x10000589C, symSize: 0x38 }
  - { offsetInCU: 0x5AC0, offset: 0xF077, size: 0x8, addend: 0x0, symName: __ZN8Episodio13getTemporadaEEv, symObjAddr: 0x274, symBinAddr: 0x1000058D4, symSize: 0x18 }
  - { offsetInCU: 0x5AE6, offset: 0xF09D, size: 0x8, addend: 0x0, symName: __ZN8Episodio16getCalificacionEEv, symObjAddr: 0x28C, symBinAddr: 0x1000058EC, symSize: 0x18 }
  - { offsetInCU: 0x5B0D, offset: 0xF0C4, size: 0x8, addend: 0x0, symName: __ZN8Episodio3strEv, symObjAddr: 0x2A4, symBinAddr: 0x100005904, symSize: 0x17C }
  - { offsetInCU: 0x5B43, offset: 0xF0FA, size: 0x8, addend: 0x0, symName: __ZNKSt3__112basic_stringIcNS_11char_traitsIcEENS_9allocatorIcEEE4sizeB8ue170006Ev, symObjAddr: 0xBFC, symBinAddr: 0x100005CC4, symSize: 0x54 }
  - { offsetInCU: 0x5B67, offset: 0xF11E, size: 0x8, addend: 0x0, symName: __ZNSt3__116allocator_traitsINS_9allocatorIcEEE37select_on_container_copy_constructionB8ue170006IS2_vvEES2_RKS2_, symObjAddr: 0xC50, symBinAddr: 0x100005D18, symSize: 0x10 }
  - { offsetInCU: 0x5B96, offset: 0xF14D, size: 0x8, addend: 0x0, symName: __ZNKSt3__112basic_stringIcNS_11char_traitsIcEENS_9allocatorIcEEE13get_allocatorB8ue170006Ev, symObjAddr: 0xC60, symBinAddr: 0x100005D28, symSize: 0x24 }
  - { offsetInCU: 0x5BBA, offset: 0xF171, size: 0x8, addend: 0x0, symName: __ZNSt3__112basic_stringIcNS_11char_traitsIcEENS_9allocatorIcEEEC1B8ue170006ENS_24__uninitialized_size_tagEmRKS4_, symObjAddr: 0xC84, symBinAddr: 0x100005D4C, symSize: 0x3C }
  - { offsetInCU: 0x5C0C, offset: 0xF1C3, size: 0x8, addend: 0x0, symName: __ZNSt3__112basic_stringIcNS_11char_traitsIcEENS_9allocatorIcEEE13__get_pointerB8ue170006Ev, symObjAddr: 0xCD4, symBinAddr: 0x100005D9C, symSize: 0x54 }
  - { offsetInCU: 0x5C30, offset: 0xF1E7, size: 0x8, addend: 0x0, symName: __ZNSt3__111char_traitsIcE4copyB8ue170006EPcPKcm, symObjAddr: 0xD28, symBinAddr: 0x100005DF0, symSize: 0x64 }
  - { offsetInCU: 0x5C6F, offset: 0xF226, size: 0x8, addend: 0x0, symName: __ZNSt3__111char_traitsIcE6assignB8ue170006EPcmc, symObjAddr: 0xDB4, symBinAddr: 0x100005E54, symSize: 0x58 }
  - { offsetInCU: 0x5CAE, offset: 0xF265, size: 0x8, addend: 0x0, symName: __ZNKSt3__112basic_stringIcNS_11char_traitsIcEENS_9allocatorIcEEE15__get_long_sizeB8ue170006Ev, symObjAddr: 0xE80, symBinAddr: 0x100005EAC, symSize: 0x28 }
  - { offsetInCU: 0x5CD2, offset: 0xF289, size: 0x8, addend: 0x0, symName: __ZNKSt3__112basic_stringIcNS_11char_traitsIcEENS_9allocatorIcEEE16__get_short_sizeB8ue170006Ev, symObjAddr: 0xEA8, symBinAddr: 0x100005ED4, symSize: 0x34 }
  - { offsetInCU: 0x5CF6, offset: 0xF2AD, size: 0x8, addend: 0x0, symName: __ZNSt3__112basic_stringIcNS_11char_traitsIcEENS_9allocatorIcEEEC2B8ue170006ENS_24__uninitialized_size_tagEmRKS4_, symObjAddr: 0xF70, symBinAddr: 0x100005F08, symSize: 0x110 }
  - { offsetInCU: 0x5D75, offset: 0xF32C, size: 0x8, addend: 0x0, symName: __ZNSt3__117__compressed_pairINS_12basic_stringIcNS_11char_traitsIcEENS_9allocatorIcEEE5__repES5_EC1B8ue170006INS_18__default_init_tagERKS5_EEOT_OT0_, symObjAddr: 0x1080, symBinAddr: 0x100006018, symSize: 0x3C }
  - { offsetInCU: 0x5DCB, offset: 0xF382, size: 0x8, addend: 0x0, symName: __ZNKSt3__112basic_stringIcNS_11char_traitsIcEENS_9allocatorIcEEE20__throw_length_errorB8ue170006Ev, symObjAddr: 0x1168, symBinAddr: 0x100006054, symSize: 0x1C }
  - { offsetInCU: 0x5DEF, offset: 0xF3A6, size: 0x8, addend: 0x0, symName: __ZNSt3__112basic_stringIcNS_11char_traitsIcEENS_9allocatorIcEEE13__fits_in_ssoB8ue170006Em, symObjAddr: 0x1184, symBinAddr: 0x100006070, symSize: 0x4C }
  - { offsetInCU: 0x5E13, offset: 0xF3CA, size: 0x8, addend: 0x0, symName: __ZNSt3__117__compressed_pairINS_12basic_stringIcNS_11char_traitsIcEENS_9allocatorIcEEE5__repES5_EC2B8ue170006INS_18__default_init_tagERKS5_EEOT_OT0_, symObjAddr: 0x1248, symBinAddr: 0x1000060BC, symSize: 0x40 }
  - { offsetInCU: 0x5E69, offset: 0xF420, size: 0x8, addend: 0x0, symName: __ZNSt3__122__compressed_pair_elemINS_9allocatorIcEELi1ELb1EEC2B8ue170006IRKS2_vEEOT_, symObjAddr: 0x1288, symBinAddr: 0x1000060FC, symSize: 0x18 }
  - { offsetInCU: 0x5EAA, offset: 0xF461, size: 0x8, addend: 0x0, symName: __ZNSt12length_errorC1B8ue170006EPKc, symObjAddr: 0x1320, symBinAddr: 0x100006178, symSize: 0x34 }
  - { offsetInCU: 0x5EE0, offset: 0xF497, size: 0x8, addend: 0x0, symName: __ZNSt12length_errorC2B8ue170006EPKc, symObjAddr: 0x1354, symBinAddr: 0x1000061AC, symSize: 0x4C }
  - { offsetInCU: 0x5F4D, offset: 0xF504, size: 0x8, addend: 0x0, symName: __ZNKSt3__114__copy_trivialclB8ue170006IKccLi0EEENS_4pairIPT_PT0_EES5_S5_S7_, symObjAddr: 0x1624, symBinAddr: 0x100006418, symSize: 0x48 }
  - { offsetInCU: 0x5FCC, offset: 0xF583, size: 0x8, addend: 0x0, symName: __ZNSt3__14pairIPKcS2_EC1B8ue170006ERKS2_S5_, symObjAddr: 0x17A0, symBinAddr: 0x100006594, symSize: 0x3C }
  - { offsetInCU: 0x6010, offset: 0xF5C7, size: 0x8, addend: 0x0, symName: __ZNSt3__14pairIPKcS2_EC2B8ue170006ERKS2_S5_, symObjAddr: 0x17DC, symBinAddr: 0x1000065D0, symSize: 0x34 }
  - { offsetInCU: 0x6055, offset: 0xF60C, size: 0x8, addend: 0x0, symName: __ZNSt3__118__unwrap_iter_implIPKcLb1EE8__unwrapB8ue170006ES2_, symObjAddr: 0x1810, symBinAddr: 0x100006604, symSize: 0x24 }
  - { offsetInCU: 0x6078, offset: 0xF62F, size: 0x8, addend: 0x0, symName: __ZNSt3__14pairIPKcPcEC1B8ue170006ERKS2_RKS3_, symObjAddr: 0x1998, symBinAddr: 0x100006778, symSize: 0x3C }
  - { offsetInCU: 0x60BC, offset: 0xF673, size: 0x8, addend: 0x0, symName: __ZNSt3__14pairIPKcPcEC2B8ue170006ERKS2_RKS3_, symObjAddr: 0x19D4, symBinAddr: 0x1000067B4, symSize: 0x34 }
  - { offsetInCU: 0x6101, offset: 0xF6B8, size: 0x8, addend: 0x0, symName: __ZNSt3__118__unwrap_iter_implIPcLb1EE8__unwrapB8ue170006ES1_, symObjAddr: 0x1A08, symBinAddr: 0x1000067E8, symSize: 0x24 }
  - { offsetInCU: 0x6124, offset: 0xF6DB, size: 0x8, addend: 0x0, symName: __ZNSt3__118__unwrap_iter_implIPKcLb1EE8__rewrapB8ue170006ES2_S2_, symObjAddr: 0x1A7C, symBinAddr: 0x10000685C, symSize: 0x48 }
  - { offsetInCU: 0x6155, offset: 0xF70C, size: 0x8, addend: 0x0, symName: __ZNSt3__118__unwrap_iter_implIPcLb1EE8__rewrapB8ue170006ES1_S1_, symObjAddr: 0x1AC4, symBinAddr: 0x1000068A4, symSize: 0x48 }
  - { offsetInCU: 0x47D3, offset: 0x13F42, size: 0x8, addend: 0x0, symName: __ZN8PeliculaC2Ev, symObjAddr: 0x0, symBinAddr: 0x1000069A8, symSize: 0x4C }
  - { offsetInCU: 0x47FE, offset: 0x13F6D, size: 0x8, addend: 0x0, symName: __ZN8PeliculaC1Ev, symObjAddr: 0x4C, symBinAddr: 0x1000069F4, symSize: 0x2C }
  - { offsetInCU: 0x4829, offset: 0x13F98, size: 0x8, addend: 0x0, symName: __ZN8PeliculaC2ENSt3__112basic_stringIcNS0_11char_traitsIcEENS0_9allocatorIcEEEES6_iS6_di, symObjAddr: 0x78, symBinAddr: 0x100006A20, symSize: 0x144 }
  - { offsetInCU: 0x48AB, offset: 0x1401A, size: 0x8, addend: 0x0, symName: __ZN8PeliculaC1ENSt3__112basic_stringIcNS0_11char_traitsIcEENS0_9allocatorIcEEEES6_iS6_di, symObjAddr: 0x1C8, symBinAddr: 0x100006B64, symSize: 0x5C }
  - { offsetInCU: 0x492D, offset: 0x1409C, size: 0x8, addend: 0x0, symName: __ZN8Pelicula10setOscaresEi, symObjAddr: 0x224, symBinAddr: 0x100006BC0, symSize: 0x20 }
  - { offsetInCU: 0x4962, offset: 0x140D1, size: 0x8, addend: 0x0, symName: __ZN8Pelicula10getOscaresEv, symObjAddr: 0x244, symBinAddr: 0x100006BE0, symSize: 0x18 }
  - { offsetInCU: 0x4989, offset: 0x140F8, size: 0x8, addend: 0x0, symName: __ZN8Pelicula3strEv, symObjAddr: 0x25C, symBinAddr: 0x100006BF8, symSize: 0x354 }
  - { offsetInCU: 0x273C, offset: 0x16860, size: 0x8, addend: 0x0, symName: __ZNSt3__1plB8ue170006IcNS_11char_traitsIcEENS_9allocatorIcEEEENS_12basic_stringIT_T0_T1_EERKS9_PKS6_, symObjAddr: 0xCB4, symBinAddr: 0x100007BF4, symSize: 0x11C }
  - { offsetInCU: 0x4A51, offset: 0x18B75, size: 0x8, addend: 0x0, symName: __ZN5SerieC2Ev, symObjAddr: 0x0, symBinAddr: 0x100006F4C, symSize: 0x114 }
  - { offsetInCU: 0x4A7C, offset: 0x18BA0, size: 0x8, addend: 0x0, symName: __ZN8EpisodioD1Ev, symObjAddr: 0x114, symBinAddr: 0x100007060, symSize: 0x2C }
  - { offsetInCU: 0x4AA7, offset: 0x18BCB, size: 0x8, addend: 0x0, symName: __ZN5VideoD2Ev, symObjAddr: 0x14C, symBinAddr: 0x10000708C, symSize: 0xB0 }
  - { offsetInCU: 0x4AD2, offset: 0x18BF6, size: 0x8, addend: 0x0, symName: __ZN5SerieC1Ev, symObjAddr: 0x1FC, symBinAddr: 0x10000713C, symSize: 0x2C }
  - { offsetInCU: 0x4AFD, offset: 0x18C21, size: 0x8, addend: 0x0, symName: __ZN5SerieC2ENSt3__112basic_stringIcNS0_11char_traitsIcEENS0_9allocatorIcEEEES6_iS6_d, symObjAddr: 0x228, symBinAddr: 0x100007168, symSize: 0x1F8 }
  - { offsetInCU: 0x4B72, offset: 0x18C96, size: 0x8, addend: 0x0, symName: __ZN5SerieC1ENSt3__112basic_stringIcNS0_11char_traitsIcEENS0_9allocatorIcEEEES6_iS6_d, symObjAddr: 0x420, symBinAddr: 0x100007360, symSize: 0x54 }
  - { offsetInCU: 0x4BE6, offset: 0x18D0A, size: 0x8, addend: 0x0, symName: __ZN5Serie11setEpisodioEi8Episodio, symObjAddr: 0x474, symBinAddr: 0x1000073B4, symSize: 0x7C }
  - { offsetInCU: 0x4C39, offset: 0x18D5D, size: 0x8, addend: 0x0, symName: __ZN8EpisodioaSERKS_, symObjAddr: 0x4F0, symBinAddr: 0x100007430, symSize: 0x40 }
  - { offsetInCU: 0x4C69, offset: 0x18D8D, size: 0x8, addend: 0x0, symName: __ZN5Serie11setCantidadEi, symObjAddr: 0x530, symBinAddr: 0x100007470, symSize: 0x20 }
  - { offsetInCU: 0x4C9E, offset: 0x18DC2, size: 0x8, addend: 0x0, symName: __ZN5Serie11getEpisodioEi, symObjAddr: 0x550, symBinAddr: 0x100007490, symSize: 0xDC }
  - { offsetInCU: 0x4CE1, offset: 0x18E05, size: 0x8, addend: 0x0, symName: __ZN8EpisodioC1ERKS_, symObjAddr: 0x62C, symBinAddr: 0x10000756C, symSize: 0x34 }
  - { offsetInCU: 0x4D15, offset: 0x18E39, size: 0x8, addend: 0x0, symName: __ZN5Serie11getCantidadEv, symObjAddr: 0x660, symBinAddr: 0x1000075A0, symSize: 0x18 }
  - { offsetInCU: 0x4D3C, offset: 0x18E60, size: 0x8, addend: 0x0, symName: __ZN5Serie15calculaPromedioEv, symObjAddr: 0x678, symBinAddr: 0x1000075B8, symSize: 0xDC }
  - { offsetInCU: 0x4D8E, offset: 0x18EB2, size: 0x8, addend: 0x0, symName: __ZN5Serie3strEv, symObjAddr: 0x754, symBinAddr: 0x100007694, symSize: 0x560 }
  - { offsetInCU: 0x4DD9, offset: 0x18EFD, size: 0x8, addend: 0x0, symName: __ZNSt3__112basic_stringIcNS_11char_traitsIcEENS_9allocatorIcEEEpLB8ue170006ERKS5_, symObjAddr: 0x1014, symBinAddr: 0x100007D10, symSize: 0x2C }
  - { offsetInCU: 0x4E0C, offset: 0x18F30, size: 0x8, addend: 0x0, symName: __ZN5Serie14agregaEpisodioE8Episodio, symObjAddr: 0x1040, symBinAddr: 0x100007D3C, symSize: 0x68 }
  - { offsetInCU: 0x4E42, offset: 0x18F66, size: 0x8, addend: 0x0, symName: __ZN5Serie15calculaDuracionE8Episodio, symObjAddr: 0x10A8, symBinAddr: 0x100007DA4, symSize: 0x84 }
  - { offsetInCU: 0x4EA3, offset: 0x18FC7, size: 0x8, addend: 0x0, symName: __ZN8EpisodioD2Ev, symObjAddr: 0x112C, symBinAddr: 0x100007E28, symSize: 0x2C }
  - { offsetInCU: 0x4ECE, offset: 0x18FF2, size: 0x8, addend: 0x0, symName: __ZN8EpisodioC2ERKS_, symObjAddr: 0x1158, symBinAddr: 0x100007E54, symSize: 0x40 }
  - { offsetInCU: 0x4F02, offset: 0x19026, size: 0x8, addend: 0x0, symName: __ZNSt3__112basic_stringIcNS_11char_traitsIcEENS_9allocatorIcEEE6appendB8ue170006ERKS5_, symObjAddr: 0x2650, symBinAddr: 0x100007E94, symSize: 0x4C }
  - { offsetInCU: 0x4720, offset: 0x1D78D, size: 0x8, addend: 0x0, symName: __ZN5VideoC2Ev, symObjAddr: 0x0, symBinAddr: 0x100007EE0, symSize: 0x134 }
  - { offsetInCU: 0x474B, offset: 0x1D7B8, size: 0x8, addend: 0x0, symName: __ZN5VideoC1Ev, symObjAddr: 0x198, symBinAddr: 0x100008014, symSize: 0x2C }
  - { offsetInCU: 0x4776, offset: 0x1D7E3, size: 0x8, addend: 0x0, symName: __ZN5VideoC2ENSt3__112basic_stringIcNS0_11char_traitsIcEENS0_9allocatorIcEEEES6_iS6_d, symObjAddr: 0x1C4, symBinAddr: 0x100008040, symSize: 0x144 }
  - { offsetInCU: 0x47EA, offset: 0x1D857, size: 0x8, addend: 0x0, symName: __ZN5VideoC1ENSt3__112basic_stringIcNS0_11char_traitsIcEENS0_9allocatorIcEEEES6_iS6_d, symObjAddr: 0x308, symBinAddr: 0x100008184, symSize: 0x54 }
  - { offsetInCU: 0x485E, offset: 0x1D8CB, size: 0x8, addend: 0x0, symName: __ZN5Video5setIdENSt3__112basic_stringIcNS0_11char_traitsIcEENS0_9allocatorIcEEEE, symObjAddr: 0x35C, symBinAddr: 0x1000081D8, symSize: 0x30 }
  - { offsetInCU: 0x4894, offset: 0x1D901, size: 0x8, addend: 0x0, symName: __ZN5Video9setNombreENSt3__112basic_stringIcNS0_11char_traitsIcEENS0_9allocatorIcEEEE, symObjAddr: 0x38C, symBinAddr: 0x100008208, symSize: 0x30 }
  - { offsetInCU: 0x48CA, offset: 0x1D937, size: 0x8, addend: 0x0, symName: __ZN5Video11setDuracionEi, symObjAddr: 0x3BC, symBinAddr: 0x100008238, symSize: 0x20 }
  - { offsetInCU: 0x48FF, offset: 0x1D96C, size: 0x8, addend: 0x0, symName: __ZN5Video9setGeneroENSt3__112basic_stringIcNS0_11char_traitsIcEENS0_9allocatorIcEEEE, symObjAddr: 0x3DC, symBinAddr: 0x100008258, symSize: 0x30 }
  - { offsetInCU: 0x4935, offset: 0x1D9A2, size: 0x8, addend: 0x0, symName: __ZN5Video15setCalificacionEd, symObjAddr: 0x40C, symBinAddr: 0x100008288, symSize: 0x20 }
  - { offsetInCU: 0x496A, offset: 0x1D9D7, size: 0x8, addend: 0x0, symName: __ZN5Video5getIdEv, symObjAddr: 0x42C, symBinAddr: 0x1000082A8, symSize: 0x3C }
  - { offsetInCU: 0x4991, offset: 0x1D9FE, size: 0x8, addend: 0x0, symName: __ZN5Video9getNombreEv, symObjAddr: 0x468, symBinAddr: 0x1000082E4, symSize: 0x3C }
  - { offsetInCU: 0x49B8, offset: 0x1DA25, size: 0x8, addend: 0x0, symName: __ZN5Video11getDuracionEv, symObjAddr: 0x4A4, symBinAddr: 0x100008320, symSize: 0x18 }
  - { offsetInCU: 0x49DF, offset: 0x1DA4C, size: 0x8, addend: 0x0, symName: __ZN5Video9getGeneroEv, symObjAddr: 0x4BC, symBinAddr: 0x100008338, symSize: 0x3C }
  - { offsetInCU: 0x4A06, offset: 0x1DA73, size: 0x8, addend: 0x0, symName: __ZN5Video15getCalificacionEv, symObjAddr: 0x4F8, symBinAddr: 0x100008374, symSize: 0x18 }
  - { offsetInCU: 0x4A2D, offset: 0x1DA9A, size: 0x8, addend: 0x0, symName: __ZN5Video3strEv, symObjAddr: 0x510, symBinAddr: 0x10000838C, symSize: 0x294 }
  - { offsetInCU: 0x4B15, offset: 0x225DB, size: 0x8, addend: 0x0, symName: __ZNSt3__17getlineB8ue170006IcNS_11char_traitsIcEENS_9allocatorIcEEEERNS_13basic_istreamIT_T0_EES9_RNS_12basic_stringIS6_S7_T1_EE, symObjAddr: 0xCA0, symBinAddr: 0x100009288, symSize: 0x5C }
  - { offsetInCU: 0x4EEC, offset: 0x229B2, size: 0x8, addend: 0x0, symName: __ZNSt3__17getlineB8ue170006IcNS_11char_traitsIcEENS_9allocatorIcEEEERNS_13basic_istreamIT_T0_EES9_RNS_12basic_stringIS6_S7_T1_EES6_, symObjAddr: 0xE64, symBinAddr: 0x10000944C, symSize: 0x238 }
  - { offsetInCU: 0x4FAA, offset: 0x22A70, size: 0x8, addend: 0x0, symName: __ZNSt3__1eqB8ue170006IcNS_11char_traitsIcEENS_9allocatorIcEEEEbRKNS_12basic_stringIT_T0_T1_EEPKS6_, symObjAddr: 0x109C, symBinAddr: 0x100009684, symSize: 0xC0 }
  - { offsetInCU: 0x5027, offset: 0x22AED, size: 0x8, addend: 0x0, symName: __ZNSt3__1lsB8ue170006IcNS_11char_traitsIcEENS_9allocatorIcEEEERNS_13basic_ostreamIT_T0_EES9_RKNS_12basic_stringIS6_S7_T1_EE, symObjAddr: 0x160C, symBinAddr: 0x100009B94, symSize: 0x4C }
  - { offsetInCU: 0x507F, offset: 0x22B45, size: 0x8, addend: 0x0, symName: __ZNSt3__14endlB8ue170006IcNS_11char_traitsIcEEEERNS_13basic_ostreamIT_T0_EES7_, symObjAddr: 0x1684, symBinAddr: 0x100009C0C, symSize: 0x58 }
  - { offsetInCU: 0x50BF, offset: 0x22B85, size: 0x8, addend: 0x0, symName: __ZNSt3__1eqB8ue170006INS_9allocatorIcEEEEbRKNS_12basic_stringIcNS_11char_traitsIcEET_EES9_, symObjAddr: 0x1AE0, symBinAddr: 0x10000A020, symSize: 0x148 }
  - { offsetInCU: 0x74AE, offset: 0x24F74, size: 0x8, addend: 0x0, symName: __ZN12PolimorfismoC2Ev, symObjAddr: 0x0, symBinAddr: 0x100008620, symSize: 0x68 }
  - { offsetInCU: 0x74F6, offset: 0x24FBC, size: 0x8, addend: 0x0, symName: __ZN12PolimorfismoC1Ev, symObjAddr: 0x68, symBinAddr: 0x100008688, symSize: 0x2C }
  - { offsetInCU: 0x7521, offset: 0x24FE7, size: 0x8, addend: 0x0, symName: __ZN12Polimorfismo11leerArchivoENSt3__112basic_stringIcNS0_11char_traitsIcEENS0_9allocatorIcEEEE, symObjAddr: 0x94, symBinAddr: 0x1000086B4, symSize: 0xA44 }
  - { offsetInCU: 0x778B, offset: 0x25251, size: 0x8, addend: 0x0, symName: __ZNSt3__113basic_fstreamIcNS_11char_traitsIcEEEC1Ev, symObjAddr: 0xAD8, symBinAddr: 0x1000090F8, symSize: 0x10C }
  - { offsetInCU: 0x77B6, offset: 0x2527C, size: 0x8, addend: 0x0, symName: __ZNSt3__113basic_fstreamIcNS_11char_traitsIcEEE4openERKNS_12basic_stringIcS2_NS_9allocatorIcEEEEj, symObjAddr: 0xC1C, symBinAddr: 0x100009204, symSize: 0x84 }
  - { offsetInCU: 0x77FB, offset: 0x252C1, size: 0x8, addend: 0x0, symName: __ZNKSt3__19basic_iosIcNS_11char_traitsIcEEEcvPvB8ue170006Ev, symObjAddr: 0xCFC, symBinAddr: 0x1000092E4, symSize: 0x4C }
  - { offsetInCU: 0x786F, offset: 0x25335, size: 0x8, addend: 0x0, symName: __ZNSt3__118basic_stringstreamIcNS_11char_traitsIcEENS_9allocatorIcEEEC1B8ue170006ERKNS_12basic_stringIcS2_S4_EEj, symObjAddr: 0xD48, symBinAddr: 0x100009330, symSize: 0x11C }
  - { offsetInCU: 0x79E1, offset: 0x254A7, size: 0x8, addend: 0x0, symName: __ZNSt3__118basic_stringstreamIcNS_11char_traitsIcEENS_9allocatorIcEEED1Ev, symObjAddr: 0x11BC, symBinAddr: 0x100009744, symSize: 0x70 }
  - { offsetInCU: 0x7A0D, offset: 0x254D3, size: 0x8, addend: 0x0, symName: __ZNSt3__113basic_fstreamIcNS_11char_traitsIcEEE5closeEv, symObjAddr: 0x122C, symBinAddr: 0x1000097B4, symSize: 0x58 }
  - { offsetInCU: 0x7A39, offset: 0x254FF, size: 0x8, addend: 0x0, symName: __ZNSt3__113basic_fstreamIcNS_11char_traitsIcEEED1Ev, symObjAddr: 0x1284, symBinAddr: 0x10000980C, symSize: 0x70 }
  - { offsetInCU: 0x7A64, offset: 0x2552A, size: 0x8, addend: 0x0, symName: __ZN12Polimorfismo11setPtrVideoEiP5Video, symObjAddr: 0x12F4, symBinAddr: 0x10000987C, symSize: 0x64 }
  - { offsetInCU: 0x7AA7, offset: 0x2556D, size: 0x8, addend: 0x0, symName: __ZN12Polimorfismo11setCantidadEi, symObjAddr: 0x1358, symBinAddr: 0x1000098E0, symSize: 0x54 }
  - { offsetInCU: 0x7ADC, offset: 0x255A2, size: 0x8, addend: 0x0, symName: __ZN12Polimorfismo11getPtrVideoEi, symObjAddr: 0x13AC, symBinAddr: 0x100009934, symSize: 0x6C }
  - { offsetInCU: 0x7B11, offset: 0x255D7, size: 0x8, addend: 0x0, symName: __ZN12Polimorfismo11getCantidadEv, symObjAddr: 0x1418, symBinAddr: 0x1000099A0, symSize: 0x18 }
  - { offsetInCU: 0x7B38, offset: 0x255FE, size: 0x8, addend: 0x0, symName: __ZN12Polimorfismo17reporteInventarioEv, symObjAddr: 0x1430, symBinAddr: 0x1000099B8, symSize: 0x1DC }
  - { offsetInCU: 0x7B8F, offset: 0x25655, size: 0x8, addend: 0x0, symName: __ZNSt3__113basic_ostreamIcNS_11char_traitsIcEEElsB8ue170006EPFRS3_S4_E, symObjAddr: 0x1658, symBinAddr: 0x100009BE0, symSize: 0x2C }
  - { offsetInCU: 0x7C10, offset: 0x256D6, size: 0x8, addend: 0x0, symName: __ZNKSt9type_infoeqB8ue170006ERKS_, symObjAddr: 0x16DC, symBinAddr: 0x100009C64, symSize: 0x124 }
  - { offsetInCU: 0x7CAC, offset: 0x25772, size: 0x8, addend: 0x0, symName: __ZN12Polimorfismo19reporteCalificacionEd, symObjAddr: 0x1848, symBinAddr: 0x100009D88, symSize: 0x13C }
  - { offsetInCU: 0x7D03, offset: 0x257C9, size: 0x8, addend: 0x0, symName: __ZN12Polimorfismo13reporteGeneroENSt3__112basic_stringIcNS0_11char_traitsIcEENS0_9allocatorIcEEEE, symObjAddr: 0x1984, symBinAddr: 0x100009EC4, symSize: 0x15C }
  - { offsetInCU: 0x7D5B, offset: 0x25821, size: 0x8, addend: 0x0, symName: __ZN12Polimorfismo16reportePeliculasEv, symObjAddr: 0x1C28, symBinAddr: 0x10000A168, symSize: 0x194 }
  - { offsetInCU: 0x7DA4, offset: 0x2586A, size: 0x8, addend: 0x0, symName: __ZN12Polimorfismo13reporteSeriesEv, symObjAddr: 0x1DBC, symBinAddr: 0x10000A2FC, symSize: 0x194 }
  - { offsetInCU: 0x7DED, offset: 0x258B3, size: 0x8, addend: 0x0, symName: __ZNSt3__118basic_stringstreamIcNS_11char_traitsIcEENS_9allocatorIcEEED2Ev, symObjAddr: 0x1FBC, symBinAddr: 0x10000A490, symSize: 0xA4 }
  - { offsetInCU: 0x7E25, offset: 0x258EB, size: 0x8, addend: 0x0, symName: __ZThn16_NSt3__118basic_stringstreamIcNS_11char_traitsIcEENS_9allocatorIcEEED1Ev, symObjAddr: 0x2060, symBinAddr: 0x10000A534, symSize: 0x1C }
  - { offsetInCU: 0x7E3C, offset: 0x25902, size: 0x8, addend: 0x0, symName: __ZTv0_n24_NSt3__118basic_stringstreamIcNS_11char_traitsIcEENS_9allocatorIcEEED1Ev, symObjAddr: 0x207C, symBinAddr: 0x10000A550, symSize: 0x28 }
  - { offsetInCU: 0x7E58, offset: 0x2591E, size: 0x8, addend: 0x0, symName: __ZNSt3__115basic_stringbufIcNS_11char_traitsIcEENS_9allocatorIcEEED1Ev, symObjAddr: 0x20A4, symBinAddr: 0x10000A578, symSize: 0x2C }
  - { offsetInCU: 0x7E84, offset: 0x2594A, size: 0x8, addend: 0x0, symName: __ZNSt3__115basic_stringbufIcNS_11char_traitsIcEENS_9allocatorIcEEED2Ev, symObjAddr: 0x20D0, symBinAddr: 0x10000A5A4, symSize: 0x78 }
  - { offsetInCU: 0x7EB0, offset: 0x25976, size: 0x8, addend: 0x0, symName: __ZNSt3__113basic_fstreamIcNS_11char_traitsIcEEED2Ev, symObjAddr: 0x2148, symBinAddr: 0x10000A61C, symSize: 0xA4 }
  - { offsetInCU: 0x7EE7, offset: 0x259AD, size: 0x8, addend: 0x0, symName: __ZThn16_NSt3__113basic_fstreamIcNS_11char_traitsIcEEED1Ev, symObjAddr: 0x21EC, symBinAddr: 0x10000A6C0, symSize: 0x1C }
  - { offsetInCU: 0x7EFD, offset: 0x259C3, size: 0x8, addend: 0x0, symName: __ZTv0_n24_NSt3__113basic_fstreamIcNS_11char_traitsIcEEED1Ev, symObjAddr: 0x2208, symBinAddr: 0x10000A6DC, symSize: 0x28 }
  - { offsetInCU: 0x7F13, offset: 0x259D9, size: 0x8, addend: 0x0, symName: __ZNSt3__113basic_fstreamIcNS_11char_traitsIcEEED0Ev, symObjAddr: 0x2230, symBinAddr: 0x10000A704, symSize: 0x58 }
  - { offsetInCU: 0x7F3E, offset: 0x25A04, size: 0x8, addend: 0x0, symName: __ZThn16_NSt3__113basic_fstreamIcNS_11char_traitsIcEEED0Ev, symObjAddr: 0x2288, symBinAddr: 0x10000A75C, symSize: 0x18 }
  - { offsetInCU: 0x7F54, offset: 0x25A1A, size: 0x8, addend: 0x0, symName: __ZTv0_n24_NSt3__113basic_fstreamIcNS_11char_traitsIcEEED0Ev, symObjAddr: 0x22A0, symBinAddr: 0x10000A774, symSize: 0x20 }
  - { offsetInCU: 0x7F6A, offset: 0x25A30, size: 0x8, addend: 0x0, symName: __ZNSt27__type_info_implementations30__non_unique_arm_rtti_bit_impl21__is_type_name_uniqueB8ue170006Em, symObjAddr: 0x22CC, symBinAddr: 0x10000A794, symSize: 0x20 }
  - { offsetInCU: 0x7F8E, offset: 0x25A54, size: 0x8, addend: 0x0, symName: __ZNSt3__19basic_iosIcNS_11char_traitsIcEEEC2B8ue170006Ev, symObjAddr: 0x22EC, symBinAddr: 0x10000A7B4, symSize: 0x44 }
  - { offsetInCU: 0x7FB6, offset: 0x25A7C, size: 0x8, addend: 0x0, symName: __ZNSt3__114basic_iostreamIcNS_11char_traitsIcEEEC2B8ue170006EPNS_15basic_streambufIcS2_EE, symObjAddr: 0x2330, symBinAddr: 0x10000A7F8, symSize: 0xB4 }
  - { offsetInCU: 0x7FF9, offset: 0x25ABF, size: 0x8, addend: 0x0, symName: __ZNSt3__18ios_baseC2B8ue170006Ev, symObjAddr: 0x23E4, symBinAddr: 0x10000A8AC, symSize: 0x24 }
  - { offsetInCU: 0x8022, offset: 0x25AE8, size: 0x8, addend: 0x0, symName: __ZNSt3__113basic_istreamIcNS_11char_traitsIcEEEC2B8ue170006EPNS_15basic_streambufIcS2_EE, symObjAddr: 0x2408, symBinAddr: 0x10000A8D0, symSize: 0x64 }
  - { offsetInCU: 0x8064, offset: 0x25B2A, size: 0x8, addend: 0x0, symName: __ZNSt3__113basic_ostreamIcNS_11char_traitsIcEEEC2B8ue170006Ev, symObjAddr: 0x246C, symBinAddr: 0x10000A934, symSize: 0x34 }
  - { offsetInCU: 0x8099, offset: 0x25B5F, size: 0x8, addend: 0x0, symName: __ZNSt3__19basic_iosIcNS_11char_traitsIcEEE4initB8ue170006EPNS_15basic_streambufIcS2_EE, symObjAddr: 0x24A0, symBinAddr: 0x10000A968, symSize: 0x44 }
  - { offsetInCU: 0x80CF, offset: 0x25B95, size: 0x8, addend: 0x0, symName: __ZNSt3__113basic_filebufIcNS_11char_traitsIcEEE4openERKNS_12basic_stringIcS2_NS_9allocatorIcEEEEj, symObjAddr: 0x2A78, symBinAddr: 0x10000A9AC, symSize: 0x44 }
  - { offsetInCU: 0x8112, offset: 0x25BD8, size: 0x8, addend: 0x0, symName: __ZNSt3__19basic_iosIcNS_11char_traitsIcEEE5clearB8ue170006Ej, symObjAddr: 0x2ABC, symBinAddr: 0x10000A9F0, symSize: 0x2C }
  - { offsetInCU: 0x8145, offset: 0x25C0B, size: 0x8, addend: 0x0, symName: __ZNKSt3__112basic_stringIcNS_11char_traitsIcEENS_9allocatorIcEEE5c_strB8ue170006Ev, symObjAddr: 0x2B14, symBinAddr: 0x10000AA1C, symSize: 0x24 }
  - { offsetInCU: 0x8169, offset: 0x25C2F, size: 0x8, addend: 0x0, symName: __ZNKSt3__19basic_iosIcNS_11char_traitsIcEEE4failB8ue170006Ev, symObjAddr: 0x2DFC, symBinAddr: 0x10000AA40, symSize: 0x28 }
  - { offsetInCU: 0x818D, offset: 0x25C53, size: 0x8, addend: 0x0, symName: __ZNKSt3__18ios_base4failB8ue170006Ev, symObjAddr: 0x2E24, symBinAddr: 0x10000AA68, symSize: 0x28 }
  - { offsetInCU: 0x81B4, offset: 0x25C7A, size: 0x8, addend: 0x0, symName: __ZNSt3__115basic_stringbufIcNS_11char_traitsIcEENS_9allocatorIcEEEC1B8ue170006ERKNS_12basic_stringIcS2_S4_EEj, symObjAddr: 0x2E4C, symBinAddr: 0x10000AA90, symSize: 0x3C }
  - { offsetInCU: 0x81FA, offset: 0x25CC0, size: 0x8, addend: 0x0, symName: __ZNSt3__115basic_stringbufIcNS_11char_traitsIcEENS_9allocatorIcEEEC2B8ue170006ERKNS_12basic_stringIcS2_S4_EEj, symObjAddr: 0x2E88, symBinAddr: 0x10000AACC, symSize: 0xD8 }
  - { offsetInCU: 0x8240, offset: 0x25D06, size: 0x8, addend: 0x0, symName: __ZNSt3__112basic_stringIcNS_11char_traitsIcEENS_9allocatorIcEEEC1B8ue170006ERKS4_, symObjAddr: 0x2F84, symBinAddr: 0x10000ABA4, symSize: 0x34 }
  - { offsetInCU: 0x8277, offset: 0x25D3D, size: 0x8, addend: 0x0, symName: __ZNSt3__112basic_stringIcNS_11char_traitsIcEENS_9allocatorIcEEEC2B8ue170006ERKS4_, symObjAddr: 0x3014, symBinAddr: 0x10000ABD8, symSize: 0x40 }
  - { offsetInCU: 0x82CC, offset: 0x25D92, size: 0x8, addend: 0x0, symName: __ZNSt3__111char_traitsIcE2eqEcc, symObjAddr: 0x3258, symBinAddr: 0x10000AC18, symSize: 0x28 }
  - { offsetInCU: 0x831B, offset: 0x25DE1, size: 0x8, addend: 0x0, symName: __ZNSt3__111char_traitsIcE7compareB8ue170006EPKcS3_m, symObjAddr: 0x3CCC, symBinAddr: 0x10000AC40, symSize: 0x64 }
...
